target datalayout = "e-m:e-p270:32:32-p271:32:32-p272:64:64-i64:64-i128:128-f80:128-n8:16:32:64-S128"
target triple = "x86_64-pc-linux-gnu"

%class.QModelIndex = type { i32, i32, i64, ptr }

; Function Attrs: inlinehint mustprogress nounwind null_pointer_is_valid sspstrong uwtable
define linkonce_odr noundef ptr @_ZNK11QModelIndex15internalPointerEv(ptr noundef align 8 dereferenceable_or_null(24) %0) #2 comdat align 2 {
  %2 = alloca ptr, align 8
  store ptr %0, ptr %2, align 8
  %3 = load ptr, ptr %2, align 8
  %4 = getelementptr inbounds nuw %class.QModelIndex, ptr %3, i32 0, i32 2
  %5 = load i64, ptr %4, align 8
  %6 = inttoptr i64 %5 to ptr
  ret ptr %6
}

; Function Attrs: mustprogress null_pointer_is_valid sspstrong uwtable
define noundef zeroext i1 @_ZNK25DissectorTablesProxyModel16filterAcceptsRowEiRK11QModelIndex(ptr noundef align 8 dereferenceable_or_null(88) %0, i32 noundef %1, ptr noundef align 8 dereferenceable(24) %2) unnamed_addr #0 align 2 {
  %4 = alloca i1, align 1
  %5 = alloca ptr, align 8
  %6 = alloca i32, align 4
  %7 = alloca ptr, align 8
  %8 = alloca %class.QModelIndex, align 8
  %9 = alloca ptr, align 8
  %10 = alloca i32, align 4
  store ptr %0, ptr %5, align 8
  store i32 %1, ptr %6, align 4
  store ptr %2, ptr %7, align 8
  %11 = load ptr, ptr %5, align 8
  call void @llvm.lifetime.start.p0(i64 24, ptr %8) #19
  %12 = call noundef ptr @_ZNK19QAbstractProxyModel11sourceModelEv(ptr noundef align 8 dereferenceable_or_null(16) %11)
  %13 = load i32, ptr %6, align 4
  %14 = load ptr, ptr %7, align 8
  %15 = load ptr, ptr %12, align 8
  %16 = getelementptr inbounds ptr, ptr %15, i64 12
  %17 = load ptr, ptr %16, align 8
  call void %17(ptr dead_on_unwind writable sret(%class.QModelIndex) align 8 %8, ptr noundef align 8 dereferenceable_or_null(16) %12, i32 noundef %13, i32 noundef 0, ptr noundef align 8 dereferenceable(24) %14)
  call void @llvm.lifetime.start.p0(i64 8, ptr %9) #19
  %18 = call noundef ptr @_ZNK11QModelIndex15internalPointerEv(ptr noundef align 8 dereferenceable_or_null(24) %8) #19
  store ptr %18, ptr %9, align 8
  %19 = load ptr, ptr %9, align 8
  %20 = icmp eq ptr %19, null
  br i1 %20, label %21, label %22

21:                                               ; preds = %3
  store i1 false, ptr %4, align 1
  store i32 1, ptr %10, align 4
  br label %27

22:                                               ; preds = %3
  %23 = load ptr, ptr %9, align 8
  %24 = call noundef zeroext i1 @_ZNK25DissectorTablesProxyModel16filterAcceptItemER19DissectorTablesItem(ptr noundef align 8 dereferenceable_or_null(88) %11, ptr noundef align 8 dereferenceable(88) %23)
  br i1 %24, label %25, label %26

25:                                               ; preds = %22
  store i1 true, ptr %4, align 1
  store i32 1, ptr %10, align 4
  br label %27

26:                                               ; preds = %22
  store i1 false, ptr %4, align 1
  store i32 1, ptr %10, align 4
  br label %27

27:                                               ; preds = %26, %25, %21
  call void @llvm.lifetime.end.p0(i64 8, ptr %9) #19
  call void @llvm.lifetime.end.p0(i64 24, ptr %8) #19
  %28 = load i1, ptr %4, align 1
  ret i1 %28
}