; Function Attrs: mustprogress null_pointer_is_valid sspstrong uwtable
define noundef zeroext i1 @_ZNK25DissectorTablesProxyModel16filterAcceptsRowEiRK11QModelIndex(ptr noundef align 8 dereferenceable_or_null(88) %0, i32 noundef %1, ptr noundef align 8 dereferenceable(24) %2) unnamed_addr #5 align 2 {
  %4 = alloca %class.QModelIndex, align 8
  call void @llvm.lifetime.start.p0(i64 24, ptr nonnull %4) #22
  %5 = tail call noundef ptr @_ZNK19QAbstractProxyModel11sourceModelEv(ptr noundef align 8 dereferenceable_or_null(16) %0)
  %6 = load ptr, ptr %5, align 8
  %7 = getelementptr inbounds nuw i8, ptr %6, i64 96
  %8 = load ptr, ptr %7, align 8
  call void %8(ptr dead_on_unwind nonnull writable sret(%class.QModelIndex) align 8 %4, ptr noundef align 8 dereferenceable_or_null(16) %5, i32 noundef %1, i32 noundef 0, ptr noundef align 8 dereferenceable(24) %2)
  %9 = getelementptr inbounds nuw i8, ptr %4, i64 8
  %10 = load i64, ptr %9, align 8
  %11 = icmp eq i64 %10, 0
  br i1 %11, label %15, label %12

12:                                               ; preds = %3
  %13 = inttoptr i64 %10 to ptr
  %14 = call noundef zeroext i1 @_ZNK25DissectorTablesProxyModel16filterAcceptItemER19DissectorTablesItem(ptr noundef align 8 dereferenceable_or_null(88) %0, ptr noundef nonnull align 8 dereferenceable(88) %13)
  br label %15

15:                                               ; preds = %12, %3
  %.0 = phi i1 [ false, %3 ], [ %14, %12 ]
  call void @llvm.lifetime.end.p0(i64 24, ptr nonnull %4) #22
  ret i1 %.0
}